target datalayout = "e-m:e-p270:32:32-p271:32:32-p272:64:64-i64:64-i128:128-f80:128-n8:16:32:64-S128"
target triple = "x86_64-pc-linux-gnu"

%struct.GetBitContext = type { ptr, ptr, i32, i32, i32 }

@dequant_lsp10i.vec_sizes = internal constant [4 x i16] [i16 256, i16 64, i16 32, i16 32], align 2
@dequant_lsp10i.mul_lsf = internal constant [4 x double] [double 0x3F756038004CD903, double 0x3F57F700B541FD00, double 0x3F4F8420174FB4CB, double 0x3F528E5BAAD0129C], align 16
@dequant_lsp10i.base_lsf = internal constant [4 x double] [double 0xBFE5AAA89104ED86, double 0xBFC8CA115D2A9E93, double 0xBFBAEE589492D90B, double 0xBFC715CADA45460B], align 16

; Function Attrs: alwaysinline nounwind willreturn memory(none) uwtable
define internal i32 @av_bswap32(i32 noundef %0) #4 {
  %2 = alloca i32, align 4
  store i32 %0, ptr %2, align 4, !tbaa !35
  %3 = load i32, ptr %2, align 4, !tbaa !35
  %4 = shl i32 %3, 8
  %5 = and i32 %4, 65280
  %6 = load i32, ptr %2, align 4, !tbaa !35
  %7 = lshr i32 %6, 8
  %8 = and i32 %7, 255
  %9 = or i32 %5, %8
  %10 = shl i32 %9, 16
  %11 = load i32, ptr %2, align 4, !tbaa !35
  %12 = lshr i32 %11, 16
  %13 = shl i32 %12, 8
  %14 = and i32 %13, 65280
  %15 = load i32, ptr %2, align 4, !tbaa !35
  %16 = lshr i32 %15, 16
  %17 = lshr i32 %16, 8
  %18 = and i32 %17, 255
  %19 = or i32 %14, %18
  %20 = or i32 %10, %19
  ret i32 %20
}

; Function Attrs: nounwind uwtable
define internal void @dequant_lsps(ptr noundef %0, i32 noundef %1, ptr noundef %2, ptr noundef %3, i32 noundef %4, ptr noundef %5, ptr noundef %6, ptr noundef %7) #1 {
  %9 = alloca ptr, align 8
  %10 = alloca i32, align 4
  %11 = alloca ptr, align 8
  %12 = alloca ptr, align 8
  %13 = alloca i32, align 4
  %14 = alloca ptr, align 8
  %15 = alloca ptr, align 8
  %16 = alloca ptr, align 8
  %17 = alloca i32, align 4
  %18 = alloca i32, align 4
  %19 = alloca ptr, align 8
  %20 = alloca double, align 8
  %21 = alloca double, align 8
  store ptr %0, ptr %9, align 8, !tbaa !106
  store i32 %1, ptr %10, align 4, !tbaa !35
  store ptr %2, ptr %11, align 8, !tbaa !139
  store ptr %3, ptr %12, align 8, !tbaa !139
  store i32 %4, ptr %13, align 4, !tbaa !35
  store ptr %5, ptr %14, align 8, !tbaa !82
  store ptr %6, ptr %15, align 8, !tbaa !106
  store ptr %7, ptr %16, align 8, !tbaa !106
  call void @llvm.lifetime.start.p0(i64 4, ptr %17) #11
  call void @llvm.lifetime.start.p0(i64 4, ptr %18) #11
  %22 = load ptr, ptr %9, align 8, !tbaa !106
  %23 = load i32, ptr %10, align 4, !tbaa !35
  %24 = sext i32 %23 to i64
  %25 = mul i64 %24, 8
  call void @llvm.memset.p0.i64(ptr align 8 %22, i8 0, i64 %25, i1 false)
  store i32 0, ptr %17, align 4, !tbaa !35
  br label %26

26:                                               ; preds = %88, %8
  %27 = load i32, ptr %17, align 4, !tbaa !35
  %28 = load i32, ptr %13, align 4, !tbaa !35
  %29 = icmp slt i32 %27, %28
  br i1 %29, label %30, label %91

30:                                               ; preds = %26
  call void @llvm.lifetime.start.p0(i64 8, ptr %19) #11
  %31 = load ptr, ptr %14, align 8, !tbaa !82
  %32 = load ptr, ptr %11, align 8, !tbaa !139
  %33 = load i32, ptr %17, align 4, !tbaa !35
  %34 = sext i32 %33 to i64
  %35 = getelementptr inbounds i16, ptr %32, i64 %34
  %36 = load i16, ptr %35, align 2, !tbaa !61
  %37 = zext i16 %36 to i32
  %38 = load i32, ptr %10, align 4, !tbaa !35
  %39 = mul nsw i32 %37, %38
  %40 = sext i32 %39 to i64
  %41 = getelementptr inbounds i8, ptr %31, i64 %40
  store ptr %41, ptr %19, align 8, !tbaa !82
  call void @llvm.lifetime.start.p0(i64 8, ptr %20) #11
  %42 = load ptr, ptr %16, align 8, !tbaa !106
  %43 = load i32, ptr %17, align 4, !tbaa !35
  %44 = sext i32 %43 to i64
  %45 = getelementptr inbounds double, ptr %42, i64 %44
  %46 = load double, ptr %45, align 8, !tbaa !51
  store double %46, ptr %20, align 8, !tbaa !51
  call void @llvm.lifetime.start.p0(i64 8, ptr %21) #11
  %47 = load ptr, ptr %15, align 8, !tbaa !106
  %48 = load i32, ptr %17, align 4, !tbaa !35
  %49 = sext i32 %48 to i64
  %50 = getelementptr inbounds double, ptr %47, i64 %49
  %51 = load double, ptr %50, align 8, !tbaa !51
  store double %51, ptr %21, align 8, !tbaa !51
  store i32 0, ptr %18, align 4, !tbaa !35
  br label %52

52:                                               ; preds = %73, %30
  %53 = load i32, ptr %18, align 4, !tbaa !35
  %54 = load i32, ptr %10, align 4, !tbaa !35
  %55 = icmp slt i32 %53, %54
  br i1 %55, label %56, label %76

56:                                               ; preds = %52
  %57 = load double, ptr %20, align 8, !tbaa !51
  %58 = load double, ptr %21, align 8, !tbaa !51
  %59 = load ptr, ptr %19, align 8, !tbaa !82
  %60 = load i32, ptr %18, align 4, !tbaa !35
  %61 = sext i32 %60 to i64
  %62 = getelementptr inbounds i8, ptr %59, i64 %61
  %63 = load i8, ptr %62, align 1, !tbaa !34
  %64 = zext i8 %63 to i32
  %65 = sitofp i32 %64 to double
  %66 = call nsz double @llvm.fmuladd.f64(double %58, double %65, double %57)
  %67 = load ptr, ptr %9, align 8, !tbaa !106
  %68 = load i32, ptr %18, align 4, !tbaa !35
  %69 = sext i32 %68 to i64
  %70 = getelementptr inbounds double, ptr %67, i64 %69
  %71 = load double, ptr %70, align 8, !tbaa !51
  %72 = fadd nsz double %71, %66
  store double %72, ptr %70, align 8, !tbaa !51
  br label %73

73:                                               ; preds = %56
  %74 = load i32, ptr %18, align 4, !tbaa !35
  %75 = add nsw i32 %74, 1
  store i32 %75, ptr %18, align 4, !tbaa !35
  br label %52, !llvm.loop !140

76:                                               ; preds = %52
  %77 = load ptr, ptr %12, align 8, !tbaa !139
  %78 = load i32, ptr %17, align 4, !tbaa !35
  %79 = sext i32 %78 to i64
  %80 = getelementptr inbounds i16, ptr %77, i64 %79
  %81 = load i16, ptr %80, align 2, !tbaa !61
  %82 = zext i16 %81 to i32
  %83 = load i32, ptr %10, align 4, !tbaa !35
  %84 = mul nsw i32 %82, %83
  %85 = load ptr, ptr %14, align 8, !tbaa !82
  %86 = sext i32 %84 to i64
  %87 = getelementptr inbounds i8, ptr %85, i64 %86
  store ptr %87, ptr %14, align 8, !tbaa !82
  call void @llvm.lifetime.end.p0(i64 8, ptr %21) #11
  call void @llvm.lifetime.end.p0(i64 8, ptr %20) #11
  call void @llvm.lifetime.end.p0(i64 8, ptr %19) #11
  br label %88

88:                                               ; preds = %76
  %89 = load i32, ptr %17, align 4, !tbaa !35
  %90 = add nsw i32 %89, 1
  store i32 %90, ptr %17, align 4, !tbaa !35
  br label %26, !llvm.loop !141

91:                                               ; preds = %26
  call void @llvm.lifetime.end.p0(i64 4, ptr %18) #11
  call void @llvm.lifetime.end.p0(i64 4, ptr %17) #11
  ret void
}

; Function Attrs: inlinehint nounwind uwtable
define internal i32 @get_bits(ptr noundef %0, i32 noundef %1) #6 {
  %3 = alloca ptr, align 8
  %4 = alloca i32, align 4
  %5 = alloca i32, align 4
  %6 = alloca i32, align 4
  %7 = alloca i32, align 4
  %8 = alloca i32, align 4
  store ptr %0, ptr %3, align 8, !tbaa !78
  store i32 %1, ptr %4, align 4, !tbaa !35
  call void @llvm.lifetime.start.p0(i64 4, ptr %5) #11
  call void @llvm.lifetime.start.p0(i64 4, ptr %6) #11
  %9 = load ptr, ptr %3, align 8, !tbaa !78
  %10 = getelementptr inbounds nuw %struct.GetBitContext, ptr %9, i32 0, i32 2
  %11 = load i32, ptr %10, align 8, !tbaa !95
  store i32 %11, ptr %6, align 4, !tbaa !35
  call void @llvm.lifetime.start.p0(i64 4, ptr %7) #11
  call void @llvm.lifetime.start.p0(i64 4, ptr %8) #11
  %12 = load ptr, ptr %3, align 8, !tbaa !78
  %13 = getelementptr inbounds nuw %struct.GetBitContext, ptr %12, i32 0, i32 4
  %14 = load i32, ptr %13, align 8, !tbaa !93
  store i32 %14, ptr %8, align 4, !tbaa !35
  %15 = load ptr, ptr %3, align 8, !tbaa !78
  %16 = getelementptr inbounds nuw %struct.GetBitContext, ptr %15, i32 0, i32 0
  %17 = load ptr, ptr %16, align 8, !tbaa !91
  %18 = load i32, ptr %6, align 4, !tbaa !35
  %19 = lshr i32 %18, 3
  %20 = zext i32 %19 to i64
  %21 = getelementptr inbounds nuw i8, ptr %17, i64 %20
  %22 = load i32, ptr %21, align 1, !tbaa !34
  %23 = call i32 @av_bswap32(i32 noundef %22) #12
  %24 = load i32, ptr %6, align 4, !tbaa !35
  %25 = and i32 %24, 7
  %26 = shl i32 %23, %25
  %27 = lshr i32 %26, 0
  store i32 %27, ptr %7, align 4, !tbaa !35
  %28 = load i32, ptr %7, align 4, !tbaa !35
  %29 = load i32, ptr %4, align 4, !tbaa !35
  %30 = sub nsw i32 32, %29
  %31 = lshr i32 %28, %30
  store i32 %31, ptr %5, align 4, !tbaa !35
  %32 = load i32, ptr %8, align 4, !tbaa !35
  %33 = load i32, ptr %6, align 4, !tbaa !35
  %34 = load i32, ptr %4, align 4, !tbaa !35
  %35 = add i32 %33, %34
  %36 = icmp ugt i32 %32, %35
  br i1 %36, label %37, label %41

37:                                               ; preds = %2
  %38 = load i32, ptr %6, align 4, !tbaa !35
  %39 = load i32, ptr %4, align 4, !tbaa !35
  %40 = add i32 %38, %39
  br label %43

41:                                               ; preds = %2
  %42 = load i32, ptr %8, align 4, !tbaa !35
  br label %43

43:                                               ; preds = %41, %37
  %44 = phi i32 [ %40, %37 ], [ %42, %41 ]
  store i32 %44, ptr %6, align 4, !tbaa !35
  %45 = load i32, ptr %6, align 4, !tbaa !35
  %46 = load ptr, ptr %3, align 8, !tbaa !78
  %47 = getelementptr inbounds nuw %struct.GetBitContext, ptr %46, i32 0, i32 2
  store i32 %45, ptr %47, align 8, !tbaa !95
  %48 = load i32, ptr %5, align 4, !tbaa !35
  call void @llvm.lifetime.end.p0(i64 4, ptr %8) #11
  call void @llvm.lifetime.end.p0(i64 4, ptr %7) #11
  call void @llvm.lifetime.end.p0(i64 4, ptr %6) #11
  call void @llvm.lifetime.end.p0(i64 4, ptr %5) #11
  ret i32 %48
}

; Function Attrs: nounwind uwtable
define internal void @dequant_lsp10i(ptr noundef %0, ptr noundef %1) #1 {
  %3 = alloca ptr, align 8
  %4 = alloca ptr, align 8
  %5 = alloca [4 x i16], align 2
  store ptr %0, ptr %3, align 8, !tbaa !78
  store ptr %1, ptr %4, align 8, !tbaa !106
  call void @llvm.lifetime.start.p0(i64 8, ptr %5) #11
  %6 = load ptr, ptr %3, align 8, !tbaa !78
  %7 = call i32 @get_bits(ptr noundef %6, i32 noundef 8)
  %8 = trunc i32 %7 to i16
  %9 = getelementptr inbounds [4 x i16], ptr %5, i64 0, i64 0
  store i16 %8, ptr %9, align 2, !tbaa !61
  %10 = load ptr, ptr %3, align 8, !tbaa !78
  %11 = call i32 @get_bits(ptr noundef %10, i32 noundef 6)
  %12 = trunc i32 %11 to i16
  %13 = getelementptr inbounds [4 x i16], ptr %5, i64 0, i64 1
  store i16 %12, ptr %13, align 2, !tbaa !61
  %14 = load ptr, ptr %3, align 8, !tbaa !78
  %15 = call i32 @get_bits(ptr noundef %14, i32 noundef 5)
  %16 = trunc i32 %15 to i16
  %17 = getelementptr inbounds [4 x i16], ptr %5, i64 0, i64 2
  store i16 %16, ptr %17, align 2, !tbaa !61
  %18 = load ptr, ptr %3, align 8, !tbaa !78
  %19 = call i32 @get_bits(ptr noundef %18, i32 noundef 5)
  %20 = trunc i32 %19 to i16
  %21 = getelementptr inbounds [4 x i16], ptr %5, i64 0, i64 3
  store i16 %20, ptr %21, align 2, !tbaa !61
  %22 = load ptr, ptr %4, align 8, !tbaa !106
  %23 = getelementptr inbounds [4 x i16], ptr %5, i64 0, i64 0
  call void @dequant_lsps(ptr noundef %22, i32 noundef 10, ptr noundef %23, ptr noundef @dequant_lsp10i.vec_sizes, i32 noundef 4, ptr noundef @wmavoice_dq_lsp10i, ptr noundef @dequant_lsp10i.mul_lsf, ptr noundef @dequant_lsp10i.base_lsf)
  call void @llvm.lifetime.end.p0(i64 8, ptr %5) #11
  ret void
}