; Function Attrs: nofree norecurse nosync nounwind memory(read, argmem: readwrite, inaccessiblemem: none) uwtable
define internal fastcc void @dequant_lsp10i(ptr noundef captures(none) %0, ptr noundef nonnull captures(none) initializes((0, 80)) %1) unnamed_addr #9 {
  %3 = alloca [4 x i16], align 2
  call void @llvm.lifetime.start.p0(i64 8, ptr nonnull %3) #12
  %4 = getelementptr inbounds nuw i8, ptr %0, i64 16
  %5 = load i32, ptr %4, align 8, !tbaa !53
  %6 = getelementptr inbounds nuw i8, ptr %0, i64 24
  %7 = load i32, ptr %6, align 8, !tbaa !51
  %8 = load ptr, ptr %0, align 8, !tbaa !49
  %9 = lshr i32 %5, 3
  %10 = zext nneg i32 %9 to i64
  %11 = getelementptr inbounds nuw i8, ptr %8, i64 %10
  %12 = load i32, ptr %11, align 1, !tbaa !30
  %13 = tail call i32 @llvm.bswap.i32(i32 %12)
  %14 = and i32 %5, 7
  %15 = shl i32 %13, %14
  %16 = lshr i32 %15, 24
  %17 = add i32 %5, 8
  %18 = tail call i32 @llvm.umin.i32(i32 %7, i32 %17)
  store i32 %18, ptr %4, align 8, !tbaa !53
  %19 = trunc nuw nsw i32 %16 to i16
  store i16 %19, ptr %3, align 2, !tbaa !61
  %20 = lshr i32 %18, 3
  %21 = zext nneg i32 %20 to i64
  %22 = getelementptr inbounds nuw i8, ptr %8, i64 %21
  %23 = load i32, ptr %22, align 1, !tbaa !30
  %24 = tail call i32 @llvm.bswap.i32(i32 %23)
  %25 = and i32 %18, 7
  %26 = shl i32 %24, %25
  %27 = lshr i32 %26, 26
  %28 = add i32 %18, 6
  %29 = tail call i32 @llvm.umin.i32(i32 %7, i32 %28)
  store i32 %29, ptr %4, align 8, !tbaa !53
  %30 = trunc nuw nsw i32 %27 to i16
  %31 = getelementptr inbounds nuw i8, ptr %3, i64 2
  store i16 %30, ptr %31, align 2, !tbaa !61
  %32 = lshr i32 %29, 3
  %33 = zext nneg i32 %32 to i64
  %34 = getelementptr inbounds nuw i8, ptr %8, i64 %33
  %35 = load i32, ptr %34, align 1, !tbaa !30
  %36 = tail call i32 @llvm.bswap.i32(i32 %35)
  %37 = and i32 %29, 7
  %38 = shl i32 %36, %37
  %39 = lshr i32 %38, 27
  %40 = add i32 %29, 5
  %41 = tail call i32 @llvm.umin.i32(i32 %7, i32 %40)
  store i32 %41, ptr %4, align 8, !tbaa !53
  %42 = trunc nuw nsw i32 %39 to i16
  %43 = getelementptr inbounds nuw i8, ptr %3, i64 4
  store i16 %42, ptr %43, align 2, !tbaa !61
  %44 = lshr i32 %41, 3
  %45 = zext nneg i32 %44 to i64
  %46 = getelementptr inbounds nuw i8, ptr %8, i64 %45
  %47 = load i32, ptr %46, align 1, !tbaa !30
  %48 = tail call i32 @llvm.bswap.i32(i32 %47)
  %49 = and i32 %41, 7
  %50 = shl i32 %48, %49
  %51 = lshr i32 %50, 27
  %52 = add i32 %41, 5
  %53 = tail call i32 @llvm.umin.i32(i32 %7, i32 %52)
  store i32 %53, ptr %4, align 8, !tbaa !53
  %54 = trunc nuw nsw i32 %51 to i16
  %55 = getelementptr inbounds nuw i8, ptr %3, i64 6
  store i16 %54, ptr %55, align 2, !tbaa !61
  tail call void @llvm.memset.p0.i64(ptr noundef nonnull align 8 dereferenceable(80) %1, i8 0, i64 80, i1 false)
  br label %56

56:                                               ; preds = %74, %2
  %indvars.iv32.i = phi i64 [ 0, %2 ], [ %indvars.iv.next33.i, %74 ]
  %.030.i = phi ptr [ @wmavoice_dq_lsp10i, %2 ], [ %79, %74 ]
  %57 = getelementptr inbounds nuw i16, ptr %3, i64 %indvars.iv32.i
  %58 = load i16, ptr %57, align 2, !tbaa !61
  %59 = zext i16 %58 to i64
  %60 = mul nuw nsw i64 %59, 10
  %61 = getelementptr inbounds nuw i8, ptr %.030.i, i64 %60
  %62 = getelementptr inbounds nuw double, ptr @dequant_lsp10i.base_lsf, i64 %indvars.iv32.i
  %63 = load double, ptr %62, align 8, !tbaa !46
  %64 = getelementptr inbounds nuw double, ptr @dequant_lsp10i.mul_lsf, i64 %indvars.iv32.i
  %65 = load double, ptr %64, align 8, !tbaa !46
  br label %66

66:                                               ; preds = %66, %56
  %indvars.iv.i = phi i64 [ 0, %56 ], [ %indvars.iv.next.i, %66 ]
  %67 = getelementptr inbounds nuw i8, ptr %61, i64 %indvars.iv.i
  %68 = load i8, ptr %67, align 1, !tbaa !30
  %69 = uitofp i8 %68 to double
  %70 = tail call nsz double @llvm.fmuladd.f64(double %65, double %69, double %63)
  %71 = getelementptr inbounds nuw double, ptr %1, i64 %indvars.iv.i
  %72 = load double, ptr %71, align 8, !tbaa !46
  %73 = fadd nsz double %72, %70
  store double %73, ptr %71, align 8, !tbaa !46
  %indvars.iv.next.i = add nuw nsw i64 %indvars.iv.i, 1
  %exitcond.not.i = icmp eq i64 %indvars.iv.next.i, 10
  br i1 %exitcond.not.i, label %74, label %66, !llvm.loop !91

74:                                               ; preds = %66
  %75 = getelementptr inbounds nuw i16, ptr @dequant_lsp10i.vec_sizes, i64 %indvars.iv32.i
  %76 = load i16, ptr %75, align 2, !tbaa !61
  %77 = zext i16 %76 to i64
  %78 = mul nuw nsw i64 %77, 10
  %79 = getelementptr inbounds nuw i8, ptr %.030.i, i64 %78
  %indvars.iv.next33.i = add nuw nsw i64 %indvars.iv32.i, 1
  %exitcond36.not.i = icmp eq i64 %indvars.iv.next33.i, 4
  br i1 %exitcond36.not.i, label %dequant_lsps.exit, label %56, !llvm.loop !92

dequant_lsps.exit:                                ; preds = %74
  call void @llvm.lifetime.end.p0(i64 8, ptr nonnull %3) #12
  ret void
}